cnumpy.core.multiarray
_reconstruct
p0
(cnumpy
ndarray
p1
(I0
tp2
S'b'
p3
tp4
Rp5
(I1
(I3
tp6
cnumpy
dtype
p7
(S'f8'
p8
I0
I1
tp9
Rp10
(I3
S'<'
p11
NNNI-1
I-1
I0
tp12
bI00
S'\xc0v\x0fT\xb6\xddn\xbf\x1dQF\x01G\xa7s?\xf1\x1b\xb2\xc3\x90\x83\x7f\xbf'
p13
tp14
b.